target datalayout = "e-m:e-p270:32:32-p271:32:32-p272:64:64-i64:64-i128:128-f80:128-n8:16:32:64-S128"
target triple = "x86_64-pc-linux-gnu"

%class.Klass = type <{ %class.Metadata, i32, i32, i32, i32, ptr, ptr, ptr, [8 x ptr], %class.OopHandle, ptr, ptr, ptr, ptr, ptr, i32, %class.AccessFlags, i64, i64, i8, i8, i16, i16, [2 x i8], i32, [4 x i8] }>
%class.Metadata = type { ptr }
%class.OopHandle = type { ptr }
%class.AccessFlags = type { i32 }
%class.MethodMatcher = type { ptr, ptr, ptr, i32, i32 }
%class.BasicMatcher = type { %class.MethodMatcher, ptr }
%class.methodHandle = type { ptr, ptr }
%class.ConstantPool = type <{ %class.Metadata, ptr, ptr, ptr, ptr, ptr, i16, i16, i16, i16, i16, [2 x i8], i32, %union.anon, [4 x i8] }>
%union.anon = type { i32 }
%class.Method = type { %class.Metadata, ptr, ptr, ptr, ptr, %class.AccessFlags, i32, %class.MethodFlags, i16, %class.JfrTraceFlag, ptr, ptr, ptr, ptr }
%class.MethodFlags = type { i32 }
%class.JfrTraceFlag = type { i16 }
%class.ConstMethod = type <{ i64, ptr, ptr, i32, %class.ConstMethodFlags, i8, i8, i16, i16, i16, i16, i16, i16, i16, i16, i16, [4 x i8] }>
%class.ConstMethodFlags = type { i32 }

; Function Attrs: mustprogress nounwind uwtable
define linkonce_odr hidden noundef ptr @_ZNK12ConstantPool4baseEv(ptr noundef nonnull align 8 dereferenceable(68) %0) #1 comdat align 2 {
  %2 = alloca ptr, align 8
  store ptr %0, ptr %2, align 8
  %3 = load ptr, ptr %2, align 8
  %4 = getelementptr inbounds i8, ptr %3, i64 72
  ret ptr %4
}

; Function Attrs: mustprogress nounwind uwtable
define linkonce_odr hidden noundef zeroext i16 @_ZNK11ConstMethod15signature_indexEv(ptr noundef nonnull align 8 dereferenceable(52) %0) #1 comdat align 2 {
  %2 = alloca ptr, align 8
  store ptr %0, ptr %2, align 8
  %3 = load ptr, ptr %2, align 8
  %4 = getelementptr inbounds %class.ConstMethod, ptr %3, i32 0, i32 9
  %5 = load i16, ptr %4, align 2
  ret i16 %5
}

; Function Attrs: mustprogress nounwind uwtable
define linkonce_odr hidden noundef ptr @_ZNK12ConstantPool14symbol_at_addrEi(ptr noundef nonnull align 8 dereferenceable(68) %0, i32 noundef %1) #1 comdat align 2 {
  %3 = alloca ptr, align 8
  %4 = alloca i32, align 4
  store ptr %0, ptr %3, align 8
  store i32 %1, ptr %4, align 4
  %5 = load ptr, ptr %3, align 8
  %6 = call noundef ptr @_ZNK12ConstantPool4baseEv(ptr noundef nonnull align 8 dereferenceable(68) %5)
  %7 = load i32, ptr %4, align 4
  %8 = sext i32 %7 to i64
  %9 = getelementptr inbounds i64, ptr %6, i64 %8
  ret ptr %9
}

; Function Attrs: mustprogress nounwind uwtable
define linkonce_odr hidden noundef zeroext i16 @_ZNK11ConstMethod10name_indexEv(ptr noundef nonnull align 8 dereferenceable(52) %0) #1 comdat align 2 {
  %2 = alloca ptr, align 8
  store ptr %0, ptr %2, align 8
  %3 = load ptr, ptr %2, align 8
  %4 = getelementptr inbounds %class.ConstMethod, ptr %3, i32 0, i32 8
  %5 = load i16, ptr %4, align 4
  ret i16 %5
}

; Function Attrs: mustprogress nounwind uwtable
define linkonce_odr hidden noundef ptr @_ZNK11ConstMethod9constantsEv(ptr noundef nonnull align 8 dereferenceable(52) %0) #1 comdat align 2 {
  %2 = alloca ptr, align 8
  store ptr %0, ptr %2, align 8
  %3 = load ptr, ptr %2, align 8
  %4 = getelementptr inbounds %class.ConstMethod, ptr %3, i32 0, i32 1
  %5 = load ptr, ptr %4, align 8
  ret ptr %5
}

; Function Attrs: mustprogress nounwind uwtable
define linkonce_odr hidden noundef ptr @_ZNK6Method11constMethodEv(ptr noundef nonnull align 8 dereferenceable(88) %0) #1 comdat align 2 {
  %2 = alloca ptr, align 8
  store ptr %0, ptr %2, align 8
  %3 = load ptr, ptr %2, align 8
  %4 = getelementptr inbounds %class.Method, ptr %3, i32 0, i32 1
  %5 = load ptr, ptr %4, align 8
  ret ptr %5
}

; Function Attrs: mustprogress nounwind uwtable
define linkonce_odr hidden noundef zeroext i16 @_ZNK6Method15signature_indexEv(ptr noundef nonnull align 8 dereferenceable(88) %0) #1 comdat align 2 {
  %2 = alloca ptr, align 8
  store ptr %0, ptr %2, align 8
  %3 = load ptr, ptr %2, align 8
  %4 = call noundef ptr @_ZNK6Method11constMethodEv(ptr noundef nonnull align 8 dereferenceable(88) %3)
  %5 = call noundef zeroext i16 @_ZNK11ConstMethod15signature_indexEv(ptr noundef nonnull align 8 dereferenceable(52) %4)
  ret i16 %5
}

; Function Attrs: mustprogress nounwind uwtable
define linkonce_odr hidden noundef ptr @_ZNK12ConstantPool9symbol_atEi(ptr noundef nonnull align 8 dereferenceable(68) %0, i32 noundef %1) #1 comdat align 2 {
  %3 = alloca ptr, align 8
  %4 = alloca i32, align 4
  store ptr %0, ptr %3, align 8
  store i32 %1, ptr %4, align 4
  %5 = load ptr, ptr %3, align 8
  %6 = load i32, ptr %4, align 4
  %7 = call noundef ptr @_ZNK12ConstantPool14symbol_at_addrEi(ptr noundef nonnull align 8 dereferenceable(68) %5, i32 noundef %6)
  %8 = load ptr, ptr %7, align 8
  ret ptr %8
}

; Function Attrs: mustprogress nounwind uwtable
define linkonce_odr hidden noundef zeroext i16 @_ZNK6Method10name_indexEv(ptr noundef nonnull align 8 dereferenceable(88) %0) #1 comdat align 2 {
  %2 = alloca ptr, align 8
  store ptr %0, ptr %2, align 8
  %3 = load ptr, ptr %2, align 8
  %4 = call noundef ptr @_ZNK6Method11constMethodEv(ptr noundef nonnull align 8 dereferenceable(88) %3)
  %5 = call noundef zeroext i16 @_ZNK11ConstMethod10name_indexEv(ptr noundef nonnull align 8 dereferenceable(52) %4)
  ret i16 %5
}

; Function Attrs: mustprogress nounwind uwtable
define linkonce_odr hidden noundef ptr @_ZNK12ConstantPool11pool_holderEv(ptr noundef nonnull align 8 dereferenceable(68) %0) #1 comdat align 2 {
  %2 = alloca ptr, align 8
  store ptr %0, ptr %2, align 8
  %3 = load ptr, ptr %2, align 8
  %4 = getelementptr inbounds %class.ConstantPool, ptr %3, i32 0, i32 3
  %5 = load ptr, ptr %4, align 8
  ret ptr %5
}

; Function Attrs: mustprogress nounwind uwtable
define linkonce_odr hidden noundef ptr @_ZNK6Method9constantsEv(ptr noundef nonnull align 8 dereferenceable(88) %0) #1 comdat align 2 {
  %2 = alloca ptr, align 8
  store ptr %0, ptr %2, align 8
  %3 = load ptr, ptr %2, align 8
  %4 = call noundef ptr @_ZNK6Method11constMethodEv(ptr noundef nonnull align 8 dereferenceable(88) %3)
  %5 = call noundef ptr @_ZNK11ConstMethod9constantsEv(ptr noundef nonnull align 8 dereferenceable(52) %4)
  ret ptr %5
}

; Function Attrs: mustprogress nounwind uwtable
define linkonce_odr hidden noundef ptr @_ZNK12methodHandle12non_null_objEv(ptr noundef nonnull align 8 dereferenceable(16) %0) #1 comdat align 2 {
  %2 = alloca ptr, align 8
  store ptr %0, ptr %2, align 8
  %3 = load ptr, ptr %2, align 8
  %4 = getelementptr inbounds %class.methodHandle, ptr %3, i32 0, i32 0
  %5 = load ptr, ptr %4, align 8
  ret ptr %5
}

; Function Attrs: mustprogress nounwind uwtable
define linkonce_odr hidden noundef ptr @_ZNK13MethodMatcher9signatureEv(ptr noundef nonnull align 8 dereferenceable(32) %0) #1 comdat align 2 {
  %2 = alloca ptr, align 8
  store ptr %0, ptr %2, align 8
  %3 = load ptr, ptr %2, align 8
  %4 = getelementptr inbounds %class.MethodMatcher, ptr %3, i32 0, i32 2
  %5 = load ptr, ptr %4, align 8
  ret ptr %5
}

; Function Attrs: mustprogress nounwind uwtable
define linkonce_odr hidden noundef ptr @_ZNK13MethodMatcher11method_nameEv(ptr noundef nonnull align 8 dereferenceable(32) %0) #1 comdat align 2 {
  %2 = alloca ptr, align 8
  store ptr %0, ptr %2, align 8
  %3 = load ptr, ptr %2, align 8
  %4 = getelementptr inbounds %class.MethodMatcher, ptr %3, i32 0, i32 1
  %5 = load ptr, ptr %4, align 8
  ret ptr %5
}

; Function Attrs: mustprogress nounwind uwtable
define linkonce_odr hidden noundef ptr @_ZNK13MethodMatcher10class_nameEv(ptr noundef nonnull align 8 dereferenceable(32) %0) #1 comdat align 2 {
  %2 = alloca ptr, align 8
  store ptr %0, ptr %2, align 8
  %3 = load ptr, ptr %2, align 8
  %4 = getelementptr inbounds %class.MethodMatcher, ptr %3, i32 0, i32 0
  %5 = load ptr, ptr %4, align 8
  ret ptr %5
}

; Function Attrs: mustprogress nounwind uwtable
define linkonce_odr hidden noundef ptr @_ZNK6Method9signatureEv(ptr noundef nonnull align 8 dereferenceable(88) %0) #1 comdat align 2 {
  %2 = alloca ptr, align 8
  store ptr %0, ptr %2, align 8
  %3 = load ptr, ptr %2, align 8
  %4 = call noundef ptr @_ZNK6Method9constantsEv(ptr noundef nonnull align 8 dereferenceable(88) %3)
  %5 = call noundef zeroext i16 @_ZNK6Method15signature_indexEv(ptr noundef nonnull align 8 dereferenceable(88) %3)
  %6 = zext i16 %5 to i32
  %7 = call noundef ptr @_ZNK12ConstantPool9symbol_atEi(ptr noundef nonnull align 8 dereferenceable(68) %4, i32 noundef %6)
  ret ptr %7
}

; Function Attrs: mustprogress nounwind uwtable
define linkonce_odr hidden noundef ptr @_ZNK6Method4nameEv(ptr noundef nonnull align 8 dereferenceable(88) %0) #1 comdat align 2 {
  %2 = alloca ptr, align 8
  store ptr %0, ptr %2, align 8
  %3 = load ptr, ptr %2, align 8
  %4 = call noundef ptr @_ZNK6Method9constantsEv(ptr noundef nonnull align 8 dereferenceable(88) %3)
  %5 = call noundef zeroext i16 @_ZNK6Method10name_indexEv(ptr noundef nonnull align 8 dereferenceable(88) %3)
  %6 = zext i16 %5 to i32
  %7 = call noundef ptr @_ZNK12ConstantPool9symbol_atEi(ptr noundef nonnull align 8 dereferenceable(68) %4, i32 noundef %6)
  ret ptr %7
}

; Function Attrs: mustprogress nounwind uwtable
define linkonce_odr hidden noundef ptr @_ZNK5Klass4nameEv(ptr noundef nonnull align 8 dereferenceable(196) %0) #1 comdat align 2 {
  %2 = alloca ptr, align 8
  store ptr %0, ptr %2, align 8
  %3 = load ptr, ptr %2, align 8
  %4 = getelementptr inbounds %class.Klass, ptr %3, i32 0, i32 5
  %5 = load ptr, ptr %4, align 8
  ret ptr %5
}

; Function Attrs: mustprogress nounwind uwtable
define linkonce_odr hidden noundef ptr @_ZNK6Method13method_holderEv(ptr noundef nonnull align 8 dereferenceable(88) %0) #1 comdat align 2 {
  %2 = alloca ptr, align 8
  store ptr %0, ptr %2, align 8
  %3 = load ptr, ptr %2, align 8
  %4 = call noundef ptr @_ZNK6Method9constantsEv(ptr noundef nonnull align 8 dereferenceable(88) %3)
  %5 = call noundef ptr @_ZNK12ConstantPool11pool_holderEv(ptr noundef nonnull align 8 dereferenceable(68) %4)
  ret ptr %5
}

; Function Attrs: mustprogress nounwind uwtable
define linkonce_odr hidden noundef ptr @_ZNK12methodHandleptEv(ptr noundef nonnull align 8 dereferenceable(16) %0) #1 comdat align 2 {
  %2 = alloca ptr, align 8
  store ptr %0, ptr %2, align 8
  %3 = load ptr, ptr %2, align 8
  %4 = call noundef ptr @_ZNK12methodHandle12non_null_objEv(ptr noundef nonnull align 8 dereferenceable(16) %3)
  ret ptr %4
}

; Function Attrs: mustprogress nounwind uwtable
define linkonce_odr hidden noundef ptr @_ZN12BasicMatcher4nextEv(ptr noundef nonnull align 8 dereferenceable(40) %0) #1 comdat align 2 {
  %2 = alloca ptr, align 8
  store ptr %0, ptr %2, align 8
  %3 = load ptr, ptr %2, align 8
  %4 = getelementptr inbounds %class.BasicMatcher, ptr %3, i32 0, i32 1
  %5 = load ptr, ptr %4, align 8
  ret ptr %5
}

; Function Attrs: mustprogress nounwind uwtable
define hidden noundef zeroext i1 @_ZNK13MethodMatcher7matchesERK12methodHandle(ptr noundef nonnull align 8 dereferenceable(32) %0, ptr noundef nonnull align 8 dereferenceable(16) %1) #1 align 2 {
  %3 = alloca i1, align 1
  %4 = alloca ptr, align 8
  %5 = alloca ptr, align 8
  %6 = alloca ptr, align 8
  %7 = alloca ptr, align 8
  %8 = alloca ptr, align 8
  store ptr %0, ptr %4, align 8
  store ptr %1, ptr %5, align 8
  %9 = load ptr, ptr %4, align 8
  %10 = load ptr, ptr %5, align 8
  %11 = call noundef ptr @_ZNK12methodHandleptEv(ptr noundef nonnull align 8 dereferenceable(16) %10)
  %12 = call noundef ptr @_ZNK6Method13method_holderEv(ptr noundef nonnull align 8 dereferenceable(88) %11)
  %13 = call noundef ptr @_ZNK5Klass4nameEv(ptr noundef nonnull align 8 dereferenceable(196) %12)
  store ptr %13, ptr %6, align 8
  %14 = load ptr, ptr %5, align 8
  %15 = call noundef ptr @_ZNK12methodHandleptEv(ptr noundef nonnull align 8 dereferenceable(16) %14)
  %16 = call noundef ptr @_ZNK6Method4nameEv(ptr noundef nonnull align 8 dereferenceable(88) %15)
  store ptr %16, ptr %7, align 8
  %17 = load ptr, ptr %5, align 8
  %18 = call noundef ptr @_ZNK12methodHandleptEv(ptr noundef nonnull align 8 dereferenceable(16) %17)
  %19 = call noundef ptr @_ZNK6Method9signatureEv(ptr noundef nonnull align 8 dereferenceable(88) %18)
  store ptr %19, ptr %8, align 8
  %20 = load ptr, ptr %6, align 8
  %21 = call noundef ptr @_ZNK13MethodMatcher10class_nameEv(ptr noundef nonnull align 8 dereferenceable(32) %9)
  %22 = getelementptr inbounds %class.MethodMatcher, ptr %9, i32 0, i32 3
  %23 = load i32, ptr %22, align 8
  %24 = call noundef zeroext i1 @_ZNK13MethodMatcher5matchEP6SymbolS1_NS_4ModeE(ptr noundef nonnull align 8 dereferenceable(32) %9, ptr noundef %20, ptr noundef %21, i32 noundef %23)
  br i1 %24, label %25, label %39

25:                                               ; preds = %2
  %26 = load ptr, ptr %7, align 8
  %27 = call noundef ptr @_ZNK13MethodMatcher11method_nameEv(ptr noundef nonnull align 8 dereferenceable(32) %9)
  %28 = getelementptr inbounds %class.MethodMatcher, ptr %9, i32 0, i32 4
  %29 = load i32, ptr %28, align 4
  %30 = call noundef zeroext i1 @_ZNK13MethodMatcher5matchEP6SymbolS1_NS_4ModeE(ptr noundef nonnull align 8 dereferenceable(32) %9, ptr noundef %26, ptr noundef %27, i32 noundef %29)
  br i1 %30, label %31, label %39

31:                                               ; preds = %25
  %32 = call noundef ptr @_ZNK13MethodMatcher9signatureEv(ptr noundef nonnull align 8 dereferenceable(32) %9)
  %33 = icmp eq ptr %32, null
  br i1 %33, label %38, label %34

34:                                               ; preds = %31
  %35 = load ptr, ptr %8, align 8
  %36 = call noundef ptr @_ZNK13MethodMatcher9signatureEv(ptr noundef nonnull align 8 dereferenceable(32) %9)
  %37 = call noundef zeroext i1 @_ZNK13MethodMatcher5matchEP6SymbolS1_NS_4ModeE(ptr noundef nonnull align 8 dereferenceable(32) %9, ptr noundef %35, ptr noundef %36, i32 noundef 1)
  br i1 %37, label %38, label %39

38:                                               ; preds = %34, %31
  store i1 true, ptr %3, align 1
  br label %40

39:                                               ; preds = %34, %25, %2
  store i1 false, ptr %3, align 1
  br label %40

40:                                               ; preds = %39, %38
  %41 = load i1, ptr %3, align 1
  ret i1 %41
}

; Function Attrs: mustprogress nounwind uwtable
define hidden noundef zeroext i1 @_ZN12BasicMatcher5matchERK12methodHandle(ptr noundef nonnull align 8 dereferenceable(40) %0, ptr noundef nonnull align 8 dereferenceable(16) %1) #1 align 2 {
  %3 = alloca i1, align 1
  %4 = alloca ptr, align 8
  %5 = alloca ptr, align 8
  %6 = alloca ptr, align 8
  store ptr %0, ptr %4, align 8
  store ptr %1, ptr %5, align 8
  %7 = load ptr, ptr %4, align 8
  store ptr %7, ptr %6, align 8
  br label %8

8:                                                ; preds = %17, %2
  %9 = load ptr, ptr %6, align 8
  %10 = icmp ne ptr %9, null
  br i1 %10, label %11, label %20

11:                                               ; preds = %8
  %12 = load ptr, ptr %6, align 8
  %13 = load ptr, ptr %5, align 8
  %14 = call noundef zeroext i1 @_ZNK13MethodMatcher7matchesERK12methodHandle(ptr noundef nonnull align 8 dereferenceable(32) %12, ptr noundef nonnull align 8 dereferenceable(16) %13)
  br i1 %14, label %15, label %16

15:                                               ; preds = %11
  store i1 true, ptr %3, align 1
  br label %21

16:                                               ; preds = %11
  br label %17

17:                                               ; preds = %16
  %18 = load ptr, ptr %6, align 8
  %19 = call noundef ptr @_ZN12BasicMatcher4nextEv(ptr noundef nonnull align 8 dereferenceable(40) %18)
  store ptr %19, ptr %6, align 8
  br label %8, !llvm.loop !10

20:                                               ; preds = %8
  store i1 false, ptr %3, align 1
  br label %21

21:                                               ; preds = %20, %15
  %22 = load i1, ptr %3, align 1
  ret i1 %22
}