; Function Attrs: mustprogress nounwind uwtable
define hidden noundef zeroext i1 @_ZN12BasicMatcher5matchERK12methodHandle(ptr nocapture noundef nonnull readonly align 8 dereferenceable(40) %0, ptr nocapture noundef nonnull readonly align 8 dereferenceable(16) %1) local_unnamed_addr #1 align 2 {
  br label %3

3:                                                ; preds = %2, %_ZNK13MethodMatcher7matchesERK12methodHandle.exit
  %.08 = phi ptr [ %0, %2 ], [ %41, %_ZNK13MethodMatcher7matchesERK12methodHandle.exit ]
  %4 = load ptr, ptr %1, align 8
  %5 = getelementptr inbounds i8, ptr %4, i64 8
  %6 = load ptr, ptr %5, align 8
  %7 = getelementptr inbounds i8, ptr %6, i64 8
  %8 = load ptr, ptr %7, align 8
  %9 = getelementptr inbounds i8, ptr %8, i64 24
  %10 = load ptr, ptr %9, align 8
  %11 = getelementptr inbounds i8, ptr %10, i64 24
  %12 = load ptr, ptr %11, align 8
  %13 = getelementptr inbounds i8, ptr %6, i64 36
  %14 = load i16, ptr %13, align 4
  %15 = getelementptr inbounds i8, ptr %8, i64 72
  %16 = zext i16 %14 to i64
  %17 = getelementptr inbounds i64, ptr %15, i64 %16
  %18 = load ptr, ptr %17, align 8
  %19 = getelementptr inbounds i8, ptr %6, i64 38
  %20 = load i16, ptr %19, align 2
  %21 = zext i16 %20 to i64
  %22 = getelementptr inbounds i64, ptr %15, i64 %21
  %23 = load ptr, ptr %22, align 8
  %24 = load ptr, ptr %.08, align 8
  %25 = getelementptr inbounds i8, ptr %.08, i64 24
  %26 = load i32, ptr %25, align 8
  %27 = tail call noundef zeroext i1 @_ZNK13MethodMatcher5matchEP6SymbolS1_NS_4ModeE(ptr nonnull readonly align 8 poison, ptr noundef %12, ptr noundef %24, i32 noundef %26)
  br i1 %27, label %28, label %_ZNK13MethodMatcher7matchesERK12methodHandle.exit

28:                                               ; preds = %3
  %29 = getelementptr inbounds i8, ptr %.08, i64 8
  %30 = load ptr, ptr %29, align 8
  %31 = getelementptr inbounds i8, ptr %.08, i64 28
  %32 = load i32, ptr %31, align 4
  %33 = tail call noundef zeroext i1 @_ZNK13MethodMatcher5matchEP6SymbolS1_NS_4ModeE(ptr nonnull readonly align 8 poison, ptr noundef %18, ptr noundef %30, i32 noundef %32)
  br i1 %33, label %34, label %_ZNK13MethodMatcher7matchesERK12methodHandle.exit

34:                                               ; preds = %28
  %35 = getelementptr inbounds i8, ptr %.08, i64 16
  %36 = load ptr, ptr %35, align 8
  %37 = icmp eq ptr %36, null
  br i1 %37, label %_ZNK13MethodMatcher7matchesERK12methodHandle.exit.thread, label %38

38:                                               ; preds = %34
  %39 = tail call noundef zeroext i1 @_ZNK13MethodMatcher5matchEP6SymbolS1_NS_4ModeE(ptr nonnull readonly align 8 poison, ptr noundef %23, ptr noundef nonnull %36, i32 noundef 1)
  br i1 %39, label %_ZNK13MethodMatcher7matchesERK12methodHandle.exit.thread, label %_ZNK13MethodMatcher7matchesERK12methodHandle.exit

_ZNK13MethodMatcher7matchesERK12methodHandle.exit: ; preds = %38, %28, %3
  %40 = getelementptr inbounds i8, ptr %.08, i64 32
  %41 = load ptr, ptr %40, align 8
  %.not.not = icmp eq ptr %41, null
  br i1 %.not.not, label %_ZNK13MethodMatcher7matchesERK12methodHandle.exit.thread, label %3, !llvm.loop !10

_ZNK13MethodMatcher7matchesERK12methodHandle.exit.thread: ; preds = %34, %38, %_ZNK13MethodMatcher7matchesERK12methodHandle.exit
  %.not.lcssa = phi i1 [ true, %34 ], [ true, %38 ], [ false, %_ZNK13MethodMatcher7matchesERK12methodHandle.exit ]
  ret i1 %.not.lcssa
}